; Function Attrs: nounwind uwtable
define ptr @l_Lean_Elab_elabModifiers___at_Lean_Elab_Command_elabMutualInductive___spec__1___lambda__2___boxed(ptr noundef %0, ptr noundef %1, ptr noundef %2, ptr noundef %3, ptr noundef %4, ptr noundef %5, ptr noundef %6, ptr noundef %7, ptr noundef %8, ptr noundef %9) local_unnamed_addr #1 {
  %11 = ptrtoint ptr %4 to i64
  %12 = lshr i64 %11, 1
  %13 = trunc i64 %12 to i8
  %14 = and i64 %11, 1
  %.not = icmp eq i64 %14, 0
  br i1 %.not, label %15, label %lean_dec.exit22

15:                                               ; preds = %10
  %16 = load i32, ptr %4, align 4, !tbaa !8
  %17 = icmp sgt i32 %16, 1
  br i1 %17, label %18, label %20, !prof !11

18:                                               ; preds = %15
  %19 = add nsw i32 %16, -1
  store i32 %19, ptr %4, align 4, !tbaa !8
  br label %lean_dec.exit22

20:                                               ; preds = %15
  %.not.i = icmp eq i32 %16, 0
  br i1 %.not.i, label %lean_dec.exit22, label %21

21:                                               ; preds = %20
  tail call void @lean_dec_ref_cold(ptr noundef nonnull %4) #5
  br label %lean_dec.exit22

lean_dec.exit22:                                  ; preds = %21, %20, %18, %10
  %22 = ptrtoint ptr %6 to i64
  %23 = lshr i64 %22, 1
  %24 = trunc i64 %23 to i8
  %25 = and i64 %22, 1
  %.not33 = icmp eq i64 %25, 0
  br i1 %.not33, label %26, label %lean_dec.exit21

26:                                               ; preds = %lean_dec.exit22
  %27 = load i32, ptr %6, align 4, !tbaa !8
  %28 = icmp sgt i32 %27, 1
  br i1 %28, label %29, label %31, !prof !11

29:                                               ; preds = %26
  %30 = add nsw i32 %27, -1
  store i32 %30, ptr %6, align 4, !tbaa !8
  br label %lean_dec.exit21

31:                                               ; preds = %26
  %.not.i23 = icmp eq i32 %27, 0
  br i1 %.not.i23, label %lean_dec.exit21, label %32

32:                                               ; preds = %31
  tail call void @lean_dec_ref_cold(ptr noundef nonnull %6) #5
  br label %lean_dec.exit21

lean_dec.exit21:                                  ; preds = %32, %31, %29, %lean_dec.exit22
  %33 = tail call ptr @l_Lean_Elab_elabModifiers___at_Lean_Elab_Command_elabMutualInductive___spec__1___lambda__2(ptr noundef %0, ptr noundef %1, ptr noundef %2, ptr noundef %3, i8 noundef zeroext %13, ptr noundef %5, i8 noundef zeroext %24, ptr noundef %7, ptr noundef %8, ptr noundef %9)
  %34 = ptrtoint ptr %8 to i64
  %35 = and i64 %34, 1
  %.not34 = icmp eq i64 %35, 0
  br i1 %.not34, label %36, label %lean_dec.exit20

36:                                               ; preds = %lean_dec.exit21
  %37 = load i32, ptr %8, align 4, !tbaa !8
  %38 = icmp sgt i32 %37, 1
  br i1 %38, label %39, label %41, !prof !11

39:                                               ; preds = %36
  %40 = add nsw i32 %37, -1
  store i32 %40, ptr %8, align 4, !tbaa !8
  br label %lean_dec.exit20

41:                                               ; preds = %36
  %.not.i25 = icmp eq i32 %37, 0
  br i1 %.not.i25, label %lean_dec.exit20, label %42

42:                                               ; preds = %41
  tail call void @lean_dec_ref_cold(ptr noundef nonnull %8) #5
  br label %lean_dec.exit20

lean_dec.exit20:                                  ; preds = %42, %41, %39, %lean_dec.exit21
  %43 = ptrtoint ptr %5 to i64
  %44 = and i64 %43, 1
  %.not35 = icmp eq i64 %44, 0
  br i1 %.not35, label %45, label %lean_dec.exit19

45:                                               ; preds = %lean_dec.exit20
  %46 = load i32, ptr %5, align 4, !tbaa !8
  %47 = icmp sgt i32 %46, 1
  br i1 %47, label %48, label %50, !prof !11

48:                                               ; preds = %45
  %49 = add nsw i32 %46, -1
  store i32 %49, ptr %5, align 4, !tbaa !8
  br label %lean_dec.exit19

50:                                               ; preds = %45
  %.not.i27 = icmp eq i32 %46, 0
  br i1 %.not.i27, label %lean_dec.exit19, label %51

51:                                               ; preds = %50
  tail call void @lean_dec_ref_cold(ptr noundef nonnull %5) #5
  br label %lean_dec.exit19

lean_dec.exit19:                                  ; preds = %51, %50, %48, %lean_dec.exit20
  %52 = ptrtoint ptr %1 to i64
  %53 = and i64 %52, 1
  %.not36 = icmp eq i64 %53, 0
  br i1 %.not36, label %54, label %lean_dec.exit18

54:                                               ; preds = %lean_dec.exit19
  %55 = load i32, ptr %1, align 4, !tbaa !8
  %56 = icmp sgt i32 %55, 1
  br i1 %56, label %57, label %59, !prof !11

57:                                               ; preds = %54
  %58 = add nsw i32 %55, -1
  store i32 %58, ptr %1, align 4, !tbaa !8
  br label %lean_dec.exit18

59:                                               ; preds = %54
  %.not.i29 = icmp eq i32 %55, 0
  br i1 %.not.i29, label %lean_dec.exit18, label %60

60:                                               ; preds = %59
  tail call void @lean_dec_ref_cold(ptr noundef nonnull %1) #5
  br label %lean_dec.exit18

lean_dec.exit18:                                  ; preds = %60, %59, %57, %lean_dec.exit19
  %61 = ptrtoint ptr %0 to i64
  %62 = and i64 %61, 1
  %.not37 = icmp eq i64 %62, 0
  br i1 %.not37, label %63, label %lean_dec.exit

63:                                               ; preds = %lean_dec.exit18
  %64 = load i32, ptr %0, align 4, !tbaa !8
  %65 = icmp sgt i32 %64, 1
  br i1 %65, label %66, label %68, !prof !11

66:                                               ; preds = %63
  %67 = add nsw i32 %64, -1
  store i32 %67, ptr %0, align 4, !tbaa !8
  br label %lean_dec.exit

68:                                               ; preds = %63
  %.not.i31 = icmp eq i32 %64, 0
  br i1 %.not.i31, label %lean_dec.exit, label %69

69:                                               ; preds = %68
  tail call void @lean_dec_ref_cold(ptr noundef nonnull %0) #5
  br label %lean_dec.exit

lean_dec.exit:                                    ; preds = %69, %68, %66, %lean_dec.exit18
  ret ptr %33
}